target datalayout = "e-m:e-p270:32:32-p271:32:32-p272:64:64-i64:64-i128:128-f80:128-n8:16:32:64-S128"
target triple = "x86_64-pc-linux-gnu"

%struct.AVCodecContext = type { ptr, i32, i32, ptr, i32, i32, ptr, ptr, ptr, i64, i32, i32, ptr, i32, %struct.AVRational, %struct.AVRational, %struct.AVRational, i32, i32, i32, i32, i32, %struct.AVRational, i32, i32, i32, i32, i32, i32, i32, i32, i32, i32, i32, ptr, ptr, i32, float, float, float, float, float, float, float, float, float, i32, i32, i32, i32, i32, i32, i32, i32, i32, i32, i32, i32, ptr, ptr, ptr, i32, i32, i32, i32, i32, i32, i32, i32, i32, i32, %struct.AVChannelLayout, i32, i32, i32, i32, i32, i32, i32, i32, ptr, i32, i32, i32, float, float, i32, i32, i32, i32, i32, ptr, i64, i64, float, float, i32, i32, ptr, ptr, i32, i32, i32, i32, i32, ptr, ptr, ptr, ptr, i32, i32, [8 x i64], i32, i32, i32, i32, i32, i32, i32, ptr, ptr, i32, i32, i32, i32, i32, i32, i32, i32, i32, i32, ptr, ptr, i32, i32, ptr, ptr, ptr, ptr, i32, i32, i64, i32, i32, i64, ptr, i64, ptr, i32, ptr, i32 }
%struct.AVRational = type { i32, i32 }
%struct.AVChannelLayout = type { i32, i32, %union.anon.0, ptr }
%union.anon.0 = type { i64 }
%struct.APACContext = type { %struct.GetBitContext, i32, i32, [2 x %struct.ChContext], ptr, i64, i32, i32 }
%struct.GetBitContext = type { ptr, ptr, i32, i32, i32 }
%struct.ChContext = type { i32, i32, i32, i32, i32, [64 x i8], ptr }

; Function Attrs: cold nounwind optsize uwtable
define internal i32 @apac_close(ptr noundef %0) #0 {
  %2 = alloca ptr, align 8
  %3 = alloca ptr, align 8
  %4 = alloca i32, align 4
  %5 = alloca ptr, align 8
  store ptr %0, ptr %2, align 8, !tbaa !4
  call void @llvm.lifetime.start.p0(i64 8, ptr %3) #8
  %6 = load ptr, ptr %2, align 8, !tbaa !4
  %7 = getelementptr inbounds nuw %struct.AVCodecContext, ptr %6, i32 0, i32 6
  %8 = load ptr, ptr %7, align 8, !tbaa !9
  store ptr %8, ptr %3, align 8, !tbaa !29
  %9 = load ptr, ptr %3, align 8, !tbaa !29
  %10 = getelementptr inbounds nuw %struct.APACContext, ptr %9, i32 0, i32 4
  call void @av_freep(ptr noundef %10)
  %11 = load ptr, ptr %3, align 8, !tbaa !29
  %12 = getelementptr inbounds nuw %struct.APACContext, ptr %11, i32 0, i32 6
  store i32 0, ptr %12, align 8, !tbaa !58
  call void @llvm.lifetime.start.p0(i64 4, ptr %4) #8
  store i32 0, ptr %4, align 4, !tbaa !34
  br label %13

13:                                               ; preds = %26, %1
  %14 = load i32, ptr %4, align 4, !tbaa !34
  %15 = icmp slt i32 %14, 2
  br i1 %15, label %17, label %16

16:                                               ; preds = %13
  call void @llvm.lifetime.end.p0(i64 4, ptr %4) #8
  br label %29

17:                                               ; preds = %13
  call void @llvm.lifetime.start.p0(i64 8, ptr %5) #8
  %18 = load ptr, ptr %3, align 8, !tbaa !29
  %19 = getelementptr inbounds nuw %struct.APACContext, ptr %18, i32 0, i32 3
  %20 = load i32, ptr %4, align 4, !tbaa !34
  %21 = sext i32 %20 to i64
  %22 = getelementptr inbounds [2 x %struct.ChContext], ptr %19, i64 0, i64 %21
  store ptr %22, ptr %5, align 8, !tbaa !35
  %23 = load ptr, ptr %5, align 8, !tbaa !35
  %24 = getelementptr inbounds nuw %struct.ChContext, ptr %23, i32 0, i32 6
  %25 = load ptr, ptr %24, align 8, !tbaa !42
  call void @av_audio_fifo_free(ptr noundef %25)
  call void @llvm.lifetime.end.p0(i64 8, ptr %5) #8
  br label %26

26:                                               ; preds = %17
  %27 = load i32, ptr %4, align 4, !tbaa !34
  %28 = add nsw i32 %27, 1
  store i32 %28, ptr %4, align 4, !tbaa !34
  br label %13, !llvm.loop !82

29:                                               ; preds = %16
  call void @llvm.lifetime.end.p0(i64 8, ptr %3) #8
  ret i32 0
}