; Function Attrs: cold nounwind optsize uwtable
define internal noundef i32 @apac_close(ptr noundef readonly captures(none) %0) #0 {
.critedge:
  %1 = getelementptr inbounds nuw i8, ptr %0, i64 32
  %2 = load ptr, ptr %1, align 8, !tbaa !4
  %3 = getelementptr inbounds nuw i8, ptr %2, i64 232
  tail call void @av_freep(ptr noundef nonnull %3) #7
  %4 = getelementptr inbounds nuw i8, ptr %2, i64 248
  store i32 0, ptr %4, align 8, !tbaa !44
  %invariant.gep = getelementptr inbounds nuw i8, ptr %2, i64 128
  %5 = load ptr, ptr %invariant.gep, align 8, !tbaa !37
  tail call void @av_audio_fifo_free(ptr noundef %5) #7
  %gep.c = getelementptr inbounds nuw i8, ptr %2, i64 224
  %6 = load ptr, ptr %gep.c, align 8, !tbaa !37
  tail call void @av_audio_fifo_free(ptr noundef %6) #7
  ret i32 0
}